; ModuleID = '47/208.c'
source_filename = "47/208.c"
target datalayout = "e-m:e-p270:32:32-p271:32:32-p272:64:64-i64:64-f80:128-n8:16:32:64-S128"
target triple = "x86_64-pc-linux-gnu"

@.str = private unnamed_addr constant [3 x i8] c"%d\00", align 1
@.str.1 = private unnamed_addr constant [4 x i8] c"%d \00", align 1
@.str.2 = private unnamed_addr constant [4 x i8] c"%d\0A\00", align 1

; Function Attrs: noinline nounwind uwtable
define dso_local i32 @main() #0 {
  %1 = alloca i32, align 4
  %2 = alloca i32, align 4
  %3 = alloca i32, align 4
  %4 = alloca i32, align 4
  %5 = alloca [150 x i32], align 16
  store i32 0, i32* %1, align 4
  %6 = call i32 (i8*, ...) @__isoc99_scanf(i8* getelementptr inbounds ([3 x i8], [3 x i8]* @.str, i64 0, i64 0), i32* %2)
  store i32 0, i32* %3, align 4
  br label %7

7:                                                ; preds = %16, %0
  %8 = load i32, i32* %3, align 4
  %9 = load i32, i32* %2, align 4
  %10 = icmp slt i32 %8, %9
  br i1 %10, label %11, label %19

11:                                               ; preds = %7
  %12 = load i32, i32* %3, align 4
  %13 = sext i32 %12 to i64
  %14 = getelementptr inbounds [150 x i32], [150 x i32]* %5, i64 0, i64 %13
  %15 = call i32 (i8*, ...) @__isoc99_scanf(i8* getelementptr inbounds ([3 x i8], [3 x i8]* @.str, i64 0, i64 0), i32* %14)
  br label %16

16:                                               ; preds = %11
  %17 = load i32, i32* %3, align 4
  %18 = add nsw i32 %17, 1
  store i32 %18, i32* %3, align 4
  br label %7

19:                                               ; preds = %7
  %20 = load i32, i32* %2, align 4
  %21 = srem i32 %20, 2
  %22 = icmp eq i32 %21, 0
  br i1 %22, label %23, label %76

23:                                               ; preds = %19
  store i32 0, i32* %3, align 4
  br label %24

24:                                               ; preds = %51, %23
  %25 = load i32, i32* %3, align 4
  %26 = load i32, i32* %2, align 4
  %27 = sdiv i32 %26, 2
  %28 = icmp slt i32 %25, %27
  br i1 %28, label %29, label %54

29:                                               ; preds = %24
  %30 = load i32, i32* %3, align 4
  %31 = sext i32 %30 to i64
  %32 = getelementptr inbounds [150 x i32], [150 x i32]* %5, i64 0, i64 %31
  %33 = load i32, i32* %32, align 4
  store i32 %33, i32* %4, align 4
  %34 = load i32, i32* %2, align 4
  %35 = sub nsw i32 %34, 1
  %36 = load i32, i32* %3, align 4
  %37 = sub nsw i32 %35, %36
  %38 = sext i32 %37 to i64
  %39 = getelementptr inbounds [150 x i32], [150 x i32]* %5, i64 0, i64 %38
  %40 = load i32, i32* %39, align 4
  %41 = load i32, i32* %3, align 4
  %42 = sext i32 %41 to i64
  %43 = getelementptr inbounds [150 x i32], [150 x i32]* %5, i64 0, i64 %42
  store i32 %40, i32* %43, align 4
  %44 = load i32, i32* %4, align 4
  %45 = load i32, i32* %2, align 4
  %46 = sub nsw i32 %45, 1
  %47 = load i32, i32* %3, align 4
  %48 = sub nsw i32 %46, %47
  %49 = sext i32 %48 to i64
  %50 = getelementptr inbounds [150 x i32], [150 x i32]* %5, i64 0, i64 %49
  store i32 %44, i32* %50, align 4
  br label %51

51:                                               ; preds = %29
  %52 = load i32, i32* %3, align 4
  %53 = add nsw i32 %52, 1
  store i32 %53, i32* %3, align 4
  br label %24

54:                                               ; preds = %24
  store i32 0, i32* %3, align 4
  br label %55

55:                                               ; preds = %66, %54
  %56 = load i32, i32* %3, align 4
  %57 = load i32, i32* %2, align 4
  %58 = sub nsw i32 %57, 1
  %59 = icmp slt i32 %56, %58
  br i1 %59, label %60, label %69

60:                                               ; preds = %55
  %61 = load i32, i32* %3, align 4
  %62 = sext i32 %61 to i64
  %63 = getelementptr inbounds [150 x i32], [150 x i32]* %5, i64 0, i64 %62
  %64 = load i32, i32* %63, align 4
  %65 = call i32 (i8*, ...) @printf(i8* getelementptr inbounds ([4 x i8], [4 x i8]* @.str.1, i64 0, i64 0), i32 %64)
  br label %66

66:                                               ; preds = %60
  %67 = load i32, i32* %3, align 4
  %68 = add nsw i32 %67, 1
  store i32 %68, i32* %3, align 4
  br label %55

69:                                               ; preds = %55
  %70 = load i32, i32* %2, align 4
  %71 = sub nsw i32 %70, 1
  %72 = sext i32 %71 to i64
  %73 = getelementptr inbounds [150 x i32], [150 x i32]* %5, i64 0, i64 %72
  %74 = load i32, i32* %73, align 4
  %75 = call i32 (i8*, ...) @printf(i8* getelementptr inbounds ([4 x i8], [4 x i8]* @.str.2, i64 0, i64 0), i32 %74)
  br label %130

76:                                               ; preds = %19
  store i32 0, i32* %3, align 4
  br label %77

77:                                               ; preds = %105, %76
  %78 = load i32, i32* %3, align 4
  %79 = load i32, i32* %2, align 4
  %80 = sub nsw i32 %79, 1
  %81 = sdiv i32 %80, 2
  %82 = icmp slt i32 %78, %81
  br i1 %82, label %83, label %108

83:                                               ; preds = %77
  %84 = load i32, i32* %3, align 4
  %85 = sext i32 %84 to i64
  %86 = getelementptr inbounds [150 x i32], [150 x i32]* %5, i64 0, i64 %85
  %87 = load i32, i32* %86, align 4
  store i32 %87, i32* %4, align 4
  %88 = load i32, i32* %2, align 4
  %89 = sub nsw i32 %88, 1
  %90 = load i32, i32* %3, align 4
  %91 = sub nsw i32 %89, %90
  %92 = sext i32 %91 to i64
  %93 = getelementptr inbounds [150 x i32], [150 x i32]* %5, i64 0, i64 %92
  %94 = load i32, i32* %93, align 4
  %95 = load i32, i32* %3, align 4
  %96 = sext i32 %95 to i64
  %97 = getelementptr inbounds [150 x i32], [150 x i32]* %5, i64 0, i64 %96
  store i32 %94, i32* %97, align 4
  %98 = load i32, i32* %4, align 4
  %99 = load i32, i32* %2, align 4
  %100 = sub nsw i32 %99, 1
  %101 = load i32, i32* %3, align 4
  %102 = sub nsw i32 %100, %101
  %103 = sext i32 %102 to i64
  %104 = getelementptr inbounds [150 x i32], [150 x i32]* %5, i64 0, i64 %103
  store i32 %98, i32* %104, align 4
  br label %105

105:                                              ; preds = %83
  %106 = load i32, i32* %3, align 4
  %107 = add nsw i32 %106, 1
  store i32 %107, i32* %3, align 4
  br label %77

108:                                              ; preds = %77
  store i32 0, i32* %3, align 4
  br label %109

109:                                              ; preds = %120, %108
  %110 = load i32, i32* %3, align 4
  %111 = load i32, i32* %2, align 4
  %112 = sub nsw i32 %111, 1
  %113 = icmp slt i32 %110, %112
  br i1 %113, label %114, label %123

114:                                              ; preds = %109
  %115 = load i32, i32* %3, align 4
  %116 = sext i32 %115 to i64
  %117 = getelementptr inbounds [150 x i32], [150 x i32]* %5, i64 0, i64 %116
  %118 = load i32, i32* %117, align 4
  %119 = call i32 (i8*, ...) @printf(i8* getelementptr inbounds ([4 x i8], [4 x i8]* @.str.1, i64 0, i64 0), i32 %118)
  br label %120

120:                                              ; preds = %114
  %121 = load i32, i32* %3, align 4
  %122 = add nsw i32 %121, 1
  store i32 %122, i32* %3, align 4
  br label %109

123:                                              ; preds = %109
  %124 = load i32, i32* %2, align 4
  %125 = sub nsw i32 %124, 1
  %126 = sext i32 %125 to i64
  %127 = getelementptr inbounds [150 x i32], [150 x i32]* %5, i64 0, i64 %126
  %128 = load i32, i32* %127, align 4
  %129 = call i32 (i8*, ...) @printf(i8* getelementptr inbounds ([4 x i8], [4 x i8]* @.str.2, i64 0, i64 0), i32 %128)
  br label %130

130:                                              ; preds = %123, %69
  ret i32 0
}

declare dso_local i32 @__isoc99_scanf(i8*, ...) #1

declare dso_local i32 @printf(i8*, ...) #1


!llvm.module.flags = !{!0}
!llvm.ident = !{!1}

!0 = !{i32 1, !"wchar_size", i32 4}
!1 = !{!"clang version 10.0.0-4ubuntu1 "}
